; Function Attrs: nounwind uwtable
define ptr @l_Lean_Linter_MissingDocs_lint(ptr noundef %0, ptr noundef %1, ptr noundef %2, ptr noundef %3, ptr noundef %4) local_unnamed_addr #0 {
  %6 = tail call ptr @l_Lean_stringToMessageData(ptr noundef %1) #5
  %7 = load ptr, ptr @l_Lean_Linter_MissingDocs_lint___closed__2, align 8, !tbaa !4
  tail call void @lean_inc_heartbeat() #5
  %8 = tail call noalias ptr @mi_malloc_small(i64 noundef 24) #5
  %9 = icmp eq ptr %8, null
  br i1 %9, label %10, label %lean_alloc_ctor.exit

10:                                               ; preds = %5
  tail call void @lean_internal_panic_out_of_memory() #6
  unreachable

lean_alloc_ctor.exit:                             ; preds = %5
  %11 = getelementptr inbounds nuw i8, ptr %8, i64 4
  store i32 1, ptr %8, align 4, !tbaa !8
  store i32 117571608, ptr %11, align 4
  %12 = getelementptr inbounds nuw i8, ptr %8, i64 8
  store ptr %7, ptr %12, align 8, !tbaa !4
  %13 = getelementptr inbounds nuw i8, ptr %8, i64 16
  store ptr %6, ptr %13, align 8, !tbaa !4
  %14 = load ptr, ptr @l_Lean_Linter_logLint___at_Lean_Linter_MissingDocs_lint___spec__1___closed__5, align 8, !tbaa !4
  tail call void @lean_inc_heartbeat() #5
  %15 = tail call noalias ptr @mi_malloc_small(i64 noundef 24) #5
  %16 = icmp eq ptr %15, null
  br i1 %16, label %17, label %lean_alloc_ctor.exit16

17:                                               ; preds = %lean_alloc_ctor.exit
  tail call void @lean_internal_panic_out_of_memory() #6
  unreachable

lean_alloc_ctor.exit16:                           ; preds = %lean_alloc_ctor.exit
  %18 = getelementptr inbounds nuw i8, ptr %15, i64 4
  store i32 1, ptr %15, align 4, !tbaa !8
  store i32 117571608, ptr %18, align 4
  %19 = getelementptr inbounds nuw i8, ptr %15, i64 8
  store ptr %8, ptr %19, align 8, !tbaa !4
  %20 = getelementptr inbounds nuw i8, ptr %15, i64 16
  store ptr %14, ptr %20, align 8, !tbaa !4
  %21 = load ptr, ptr @l_Lean_Linter_getLinterMissingDocs___closed__1, align 8, !tbaa !4
  %22 = tail call ptr @l_Lean_Linter_logLint___at_Lean_Linter_MissingDocs_lint___spec__1(ptr noundef %21, ptr noundef %0, ptr noundef nonnull %15, ptr noundef %2, ptr noundef %3, ptr noundef %4)
  ret ptr %22
}